; Function Attrs: mustprogress nofree norecurse nosync nounwind willreturn memory(read, inaccessiblemem: none) uwtable
define dso_local <2 x float> @_ZN5ImGui17GetCursorStartPosEv() local_unnamed_addr #43 {
  %1 = load ptr, ptr @GImGui, align 8, !tbaa !211
  %2 = getelementptr inbounds nuw i8, ptr %1, i64 4928
  %3 = load ptr, ptr %2, align 8, !tbaa !308
  %4 = getelementptr inbounds nuw i8, ptr %3, i64 296
  %5 = getelementptr inbounds nuw i8, ptr %3, i64 40
  %.val = load float, ptr %4, align 4, !tbaa !49
  %6 = getelementptr i8, ptr %3, i64 300
  %.val2 = load float, ptr %6, align 4, !tbaa !50
  %.val3 = load float, ptr %5, align 4, !tbaa !49
  %7 = getelementptr i8, ptr %3, i64 44
  %.val4 = load float, ptr %7, align 4, !tbaa !50
  %8 = fsub float %.val, %.val3
  %9 = fsub float %.val2, %.val4
  %.sroa.0.0.vec.insert.i = insertelement <2 x float> poison, float %8, i64 0
  %.sroa.0.4.vec.insert.i = insertelement <2 x float> %.sroa.0.0.vec.insert.i, float %9, i64 1
  ret <2 x float> %.sroa.0.4.vec.insert.i
}